(lp0
F-6.752247182878616
aF0.12501347948153801
aF0.03327770743287087
aF-0.015471109128127852
aF-0.0014356153447157671
aF-0.0006122177520307581
aF0.0709472922246593
aF0.768388096158048
aF0.010664057905863828
a.