(lp0
F0.272843479211044
aF-0.07708546808640751
aF0.018248398247179474
aF-0.1241231826633157
aF-0.49705447490636967
aF0.07829246932047698
aF4.814681781449712
aF-0.029226008047486304
aF-0.6565948821200347
aF0.40672112787081227
aF-0.02272676380938677
aF0.09841258713550959
aF-0.0032224310179780735
aF-0.42448437538565986
a.